; Function Attrs: mustprogress nofree norecurse nosync nounwind willreturn memory(read, inaccessiblemem: none) uwtable
define noundef zeroext i1 @_ZNK7testing8internal8FilePath14IsAbsolutePathEv(ptr noundef nonnull readonly align 8 captures(none) dereferenceable(32) %0) local_unnamed_addr #24 align 2 {
  %2 = load ptr, ptr %0, align 8, !tbaa !22
  %3 = getelementptr inbounds nuw i8, ptr %0, i64 8
  %4 = load i64, ptr %3, align 8, !tbaa !25
  %.not.i = icmp samesign eq i64 %4, 0
  br i1 %.not.i, label %_ZNK7testing8internal8FilePath19CalculateRootLengthEv.exit, label %5

5:                                                ; preds = %1
  %6 = load i8, ptr %2, align 1, !tbaa !27
  %7 = icmp eq i8 %6, 47
  %spec.select.idx.i = zext i1 %7 to i64
  %spec.select.i = getelementptr inbounds nuw i8, ptr %2, i64 %spec.select.idx.i
  br label %_ZNK7testing8internal8FilePath19CalculateRootLengthEv.exit

_ZNK7testing8internal8FilePath19CalculateRootLengthEv.exit: ; preds = %1, %5
  %.sroa.05.0.i = phi ptr [ %2, %1 ], [ %spec.select.i, %5 ]
  %8 = icmp ne ptr %.sroa.05.0.i, %2
  ret i1 %8
}